; Function Attrs: mustprogress uwtable
define dso_local void @_ZN4base9Histogram8AddCountEii(ptr noundef nonnull align 8 dereferenceable(81) %this, i32 noundef %value, i32 noundef %count) unnamed_addr #0 align 2 personality ptr @__gxx_personality_v0 {
if.end13:
  %cmp20 = icmp slt i32 %count, 1
  br i1 %cmp20, label %return, label %if.end22

if.end22:                                         ; preds = %if.end13
  %0 = load i32, ptr @_ZN4base13HistogramBase15kSampleType_MAXE, align 4
  %cmp.not = icmp sgt i32 %0, %value
  %sub = add nsw i32 %0, -1
  %spec.select = select i1 %cmp.not, i32 %value, i32 %sub
  %spec.store.select = tail call i32 @llvm.smax.i32(i32 %spec.select, i32 0)
  %samples_ = getelementptr inbounds i8, ptr %this, i64 64
  %1 = load ptr, ptr %samples_, align 8
  %vtable = load ptr, ptr %1, align 8
  %vfn = getelementptr inbounds i8, ptr %vtable, i64 16
  %2 = load ptr, ptr %vfn, align 8
  tail call void %2(ptr noundef nonnull align 8 dereferenceable(88) %1, i32 noundef %spec.store.select, i32 noundef %count)
  tail call void @_ZNK4base13HistogramBase18FindAndRunCallbackEi(ptr noundef nonnull align 8 dereferenceable(44) %this, i32 noundef %spec.store.select)
  br label %return

return:                                           ; preds = %if.end13, %if.end22
  ret void
}